target datalayout = "e-m:e-p270:32:32-p271:32:32-p272:64:64-i64:64-i128:128-f80:128-n8:16:32:64-S128"
target triple = "x86_64-unknown-linux-gnu"

%"class.rocksdb::Slice" = type { ptr, i64 }
%"class.rocksdb::BlockPrefixIndex" = type { %"class.rocksdb::InternalKeySliceTransform", i32, i32, ptr, ptr }
%"class.rocksdb::InternalKeySliceTransform" = type { %"class.rocksdb::SliceTransform", ptr }
%"class.rocksdb::SliceTransform" = type { %"class.rocksdb::Customizable" }
%"class.rocksdb::Customizable" = type { %"class.rocksdb::Configurable" }
%"class.rocksdb::Configurable" = type { ptr, %"class.std::vector.11" }
%"class.std::vector.11" = type { %"struct.std::_Vector_base.12" }
%"struct.std::_Vector_base.12" = type { %"struct.std::_Vector_base<rocksdb::Configurable::RegisteredOptions, std::allocator<rocksdb::Configurable::RegisteredOptions>>::_Vector_impl" }
%"struct.std::_Vector_base<rocksdb::Configurable::RegisteredOptions, std::allocator<rocksdb::Configurable::RegisteredOptions>>::_Vector_impl" = type { %"struct.std::_Vector_base<rocksdb::Configurable::RegisteredOptions, std::allocator<rocksdb::Configurable::RegisteredOptions>>::_Vector_impl_data" }
%"struct.std::_Vector_base<rocksdb::Configurable::RegisteredOptions, std::allocator<rocksdb::Configurable::RegisteredOptions>>::_Vector_impl_data" = type { ptr, ptr, ptr }

; Function Attrs: mustprogress nounwind uwtable
define linkonce_odr void @_ZN7rocksdb5SliceC2EPKcm(ptr noundef nonnull align 8 dereferenceable(16) %this, ptr noundef %d, i64 noundef %n) unnamed_addr #1 comdat align 2 {
entry:
  %this.addr = alloca ptr, align 8
  %d.addr = alloca ptr, align 8
  %n.addr = alloca i64, align 8
  store ptr %this, ptr %this.addr, align 8
  store ptr %d, ptr %d.addr, align 8
  store i64 %n, ptr %n.addr, align 8
  %this1 = load ptr, ptr %this.addr, align 8
  %data_ = getelementptr inbounds %"class.rocksdb::Slice", ptr %this1, i32 0, i32 0
  %0 = load ptr, ptr %d.addr, align 8
  store ptr %0, ptr %data_, align 8
  %size_ = getelementptr inbounds %"class.rocksdb::Slice", ptr %this1, i32 0, i32 1
  %1 = load i64, ptr %n.addr, align 8
  store i64 %1, ptr %size_, align 8
  ret void
}

; Function Attrs: mustprogress nounwind uwtable
define linkonce_odr noundef i64 @_ZNK7rocksdb5Slice4sizeEv(ptr noundef nonnull align 8 dereferenceable(16) %this) #1 comdat align 2 {
entry:
  %this.addr = alloca ptr, align 8
  store ptr %this, ptr %this.addr, align 8
  %this1 = load ptr, ptr %this.addr, align 8
  %size_ = getelementptr inbounds %"class.rocksdb::Slice", ptr %this1, i32 0, i32 1
  %0 = load i64, ptr %size_, align 8
  ret i64 %0
}

; Function Attrs: mustprogress nounwind uwtable
define linkonce_odr noundef ptr @_ZNK7rocksdb5Slice4dataEv(ptr noundef nonnull align 8 dereferenceable(16) %this) #1 comdat align 2 {
entry:
  %this.addr = alloca ptr, align 8
  store ptr %this, ptr %this.addr, align 8
  %this1 = load ptr, ptr %this.addr, align 8
  %data_ = getelementptr inbounds %"class.rocksdb::Slice", ptr %this1, i32 0, i32 0
  %0 = load ptr, ptr %data_, align 8
  ret ptr %0
}

; Function Attrs: mustprogress uwtable
define linkonce_odr noundef i32 @_ZN7rocksdb4HashERKNS_5SliceE(ptr noundef nonnull align 8 dereferenceable(16) %s) #0 comdat {
entry:
  %s.addr = alloca ptr, align 8
  store ptr %s, ptr %s.addr, align 8
  %0 = load ptr, ptr %s.addr, align 8
  %call = call noundef ptr @_ZNK7rocksdb5Slice4dataEv(ptr noundef nonnull align 8 dereferenceable(16) %0)
  %1 = load ptr, ptr %s.addr, align 8
  %call1 = call noundef i64 @_ZNK7rocksdb5Slice4sizeEv(ptr noundef nonnull align 8 dereferenceable(16) %1)
  %call2 = call noundef i32 @_ZN7rocksdb4HashEPKcmj(ptr noundef %call, i64 noundef %call1, i32 noundef 0)
  ret i32 %call2
}

; Function Attrs: mustprogress uwtable
define linkonce_odr { ptr, i64 } @_ZN7rocksdb14ExtractUserKeyERKNS_5SliceE(ptr noundef nonnull align 8 dereferenceable(16) %internal_key) #0 comdat {
entry:
  %retval = alloca %"class.rocksdb::Slice", align 8
  %internal_key.addr = alloca ptr, align 8
  store ptr %internal_key, ptr %internal_key.addr, align 8
  %0 = load ptr, ptr %internal_key.addr, align 8
  %call = call noundef ptr @_ZNK7rocksdb5Slice4dataEv(ptr noundef nonnull align 8 dereferenceable(16) %0)
  %1 = load ptr, ptr %internal_key.addr, align 8
  %call1 = call noundef i64 @_ZNK7rocksdb5Slice4sizeEv(ptr noundef nonnull align 8 dereferenceable(16) %1)
  %sub = sub i64 %call1, 8
  call void @_ZN7rocksdb5SliceC2EPKcm(ptr noundef nonnull align 8 dereferenceable(16) %retval, ptr noundef %call, i64 noundef %sub)
  %2 = load { ptr, i64 }, ptr %retval, align 8
  ret { ptr, i64 } %2
}

; Function Attrs: mustprogress nounwind uwtable
define linkonce_odr noundef i32 @_ZN7rocksdb11DecodeIndexEj(i32 noundef %block_id) #1 comdat {
entry:
  %block_id.addr = alloca i32, align 4
  %index = alloca i32, align 4
  store i32 %block_id, ptr %block_id.addr, align 4
  %0 = load i32, ptr %block_id.addr, align 4
  %xor = xor i32 %0, -2147483648
  store i32 %xor, ptr %index, align 4
  %1 = load i32, ptr %index, align 4
  ret i32 %1
}

; Function Attrs: mustprogress nounwind uwtable
define linkonce_odr noundef zeroext i1 @_ZN7rocksdb9IsBlockIdEj(i32 noundef %block_id) #1 comdat {
entry:
  %block_id.addr = alloca i32, align 4
  store i32 %block_id, ptr %block_id.addr, align 4
  %0 = load i32, ptr %block_id.addr, align 4
  %and = and i32 %0, -2147483648
  %cmp = icmp eq i32 %and, 0
  ret i1 %cmp
}

; Function Attrs: mustprogress nounwind uwtable
define linkonce_odr noundef zeroext i1 @_ZN7rocksdb6IsNoneEj(i32 noundef %block_id) #1 comdat {
entry:
  %block_id.addr = alloca i32, align 4
  store i32 %block_id, ptr %block_id.addr, align 4
  %0 = load i32, ptr %block_id.addr, align 4
  %cmp = icmp eq i32 %0, 2147483647
  ret i1 %cmp
}

; Function Attrs: mustprogress uwtable
define linkonce_odr noundef i32 @_ZN7rocksdb14PrefixToBucketERKNS_5SliceEj(ptr noundef nonnull align 8 dereferenceable(16) %prefix, i32 noundef %num_buckets) #0 comdat {
entry:
  %prefix.addr = alloca ptr, align 8
  %num_buckets.addr = alloca i32, align 4
  store ptr %prefix, ptr %prefix.addr, align 8
  store i32 %num_buckets, ptr %num_buckets.addr, align 4
  %0 = load ptr, ptr %prefix.addr, align 8
  %call = call noundef i32 @_ZN7rocksdb4HashERKNS_5SliceE(ptr noundef nonnull align 8 dereferenceable(16) %0)
  %1 = load i32, ptr %num_buckets.addr, align 4
  %rem = urem i32 %call, %1
  ret i32 %rem
}

; Function Attrs: mustprogress uwtable
define linkonce_odr { ptr, i64 } @_ZNK7rocksdb25InternalKeySliceTransform9TransformERKNS_5SliceE(ptr noundef nonnull align 8 dereferenceable(40) %this, ptr noundef nonnull align 8 dereferenceable(16) %src) unnamed_addr #0 comdat align 2 {
entry:
  %retval = alloca %"class.rocksdb::Slice", align 8
  %this.addr = alloca ptr, align 8
  %src.addr = alloca ptr, align 8
  %user_key = alloca %"class.rocksdb::Slice", align 8
  store ptr %this, ptr %this.addr, align 8
  store ptr %src, ptr %src.addr, align 8
  %this1 = load ptr, ptr %this.addr, align 8
  %0 = load ptr, ptr %src.addr, align 8
  %call = call { ptr, i64 } @_ZN7rocksdb14ExtractUserKeyERKNS_5SliceE(ptr noundef nonnull align 8 dereferenceable(16) %0)
  %1 = getelementptr inbounds { ptr, i64 }, ptr %user_key, i32 0, i32 0
  %2 = extractvalue { ptr, i64 } %call, 0
  store ptr %2, ptr %1, align 8
  %3 = getelementptr inbounds { ptr, i64 }, ptr %user_key, i32 0, i32 1
  %4 = extractvalue { ptr, i64 } %call, 1
  store i64 %4, ptr %3, align 8
  %transform_ = getelementptr inbounds %"class.rocksdb::InternalKeySliceTransform", ptr %this1, i32 0, i32 1
  %5 = load ptr, ptr %transform_, align 8
  %vtable = load ptr, ptr %5, align 8
  %vfn = getelementptr inbounds ptr, ptr %vtable, i64 19
  %6 = load ptr, ptr %vfn, align 8
  %call2 = call { ptr, i64 } %6(ptr noundef nonnull align 8 dereferenceable(32) %5, ptr noundef nonnull align 8 dereferenceable(16) %user_key)
  %7 = getelementptr inbounds { ptr, i64 }, ptr %retval, i32 0, i32 0
  %8 = extractvalue { ptr, i64 } %call2, 0
  store ptr %8, ptr %7, align 8
  %9 = getelementptr inbounds { ptr, i64 }, ptr %retval, i32 0, i32 1
  %10 = extractvalue { ptr, i64 } %call2, 1
  store i64 %10, ptr %9, align 8
  %11 = load { ptr, i64 }, ptr %retval, align 8
  ret { ptr, i64 } %11
}

; Function Attrs: mustprogress uwtable
define noundef i32 @_ZN7rocksdb16BlockPrefixIndex9GetBlocksERKNS_5SliceEPPj(ptr noundef nonnull align 8 dereferenceable(64) %this, ptr noundef nonnull align 8 dereferenceable(16) %key, ptr noundef %blocks) #0 align 2 {
entry:
  %retval = alloca i32, align 4
  %this.addr = alloca ptr, align 8
  %key.addr = alloca ptr, align 8
  %blocks.addr = alloca ptr, align 8
  %prefix = alloca %"class.rocksdb::Slice", align 8
  %bucket = alloca i32, align 4
  %block_id = alloca i32, align 4
  %index = alloca i32, align 4
  %num_blocks = alloca i32, align 4
  store ptr %this, ptr %this.addr, align 8
  store ptr %key, ptr %key.addr, align 8
  store ptr %blocks, ptr %blocks.addr, align 8
  %this1 = load ptr, ptr %this.addr, align 8
  %internal_prefix_extractor_ = getelementptr inbounds %"class.rocksdb::BlockPrefixIndex", ptr %this1, i32 0, i32 0
  %0 = load ptr, ptr %key.addr, align 8
  %call = call { ptr, i64 } @_ZNK7rocksdb25InternalKeySliceTransform9TransformERKNS_5SliceE(ptr noundef nonnull align 8 dereferenceable(40) %internal_prefix_extractor_, ptr noundef nonnull align 8 dereferenceable(16) %0)
  %1 = getelementptr inbounds { ptr, i64 }, ptr %prefix, i32 0, i32 0
  %2 = extractvalue { ptr, i64 } %call, 0
  store ptr %2, ptr %1, align 8
  %3 = getelementptr inbounds { ptr, i64 }, ptr %prefix, i32 0, i32 1
  %4 = extractvalue { ptr, i64 } %call, 1
  store i64 %4, ptr %3, align 8
  %num_buckets_ = getelementptr inbounds %"class.rocksdb::BlockPrefixIndex", ptr %this1, i32 0, i32 1
  %5 = load i32, ptr %num_buckets_, align 8
  %call2 = call noundef i32 @_ZN7rocksdb14PrefixToBucketERKNS_5SliceEj(ptr noundef nonnull align 8 dereferenceable(16) %prefix, i32 noundef %5)
  store i32 %call2, ptr %bucket, align 4
  %buckets_ = getelementptr inbounds %"class.rocksdb::BlockPrefixIndex", ptr %this1, i32 0, i32 3
  %6 = load ptr, ptr %buckets_, align 8
  %7 = load i32, ptr %bucket, align 4
  %idxprom = zext i32 %7 to i64
  %arrayidx = getelementptr inbounds i32, ptr %6, i64 %idxprom
  %8 = load i32, ptr %arrayidx, align 4
  store i32 %8, ptr %block_id, align 4
  %9 = load i32, ptr %block_id, align 4
  %call3 = call noundef zeroext i1 @_ZN7rocksdb6IsNoneEj(i32 noundef %9)
  br i1 %call3, label %if.then, label %if.else

if.then:                                          ; preds = %entry
  store i32 0, ptr %retval, align 4
  br label %return

if.else:                                          ; preds = %entry
  %10 = load i32, ptr %block_id, align 4
  %call4 = call noundef zeroext i1 @_ZN7rocksdb9IsBlockIdEj(i32 noundef %10)
  br i1 %call4, label %if.then5, label %if.else9

if.then5:                                         ; preds = %if.else
  %buckets_6 = getelementptr inbounds %"class.rocksdb::BlockPrefixIndex", ptr %this1, i32 0, i32 3
  %11 = load ptr, ptr %buckets_6, align 8
  %12 = load i32, ptr %bucket, align 4
  %idxprom7 = zext i32 %12 to i64
  %arrayidx8 = getelementptr inbounds i32, ptr %11, i64 %idxprom7
  %13 = load ptr, ptr %blocks.addr, align 8
  store ptr %arrayidx8, ptr %13, align 8
  store i32 1, ptr %retval, align 4
  br label %return

if.else9:                                         ; preds = %if.else
  %14 = load i32, ptr %block_id, align 4
  %call10 = call noundef i32 @_ZN7rocksdb11DecodeIndexEj(i32 noundef %14)
  store i32 %call10, ptr %index, align 4
  %block_array_buffer_ = getelementptr inbounds %"class.rocksdb::BlockPrefixIndex", ptr %this1, i32 0, i32 4
  %15 = load ptr, ptr %block_array_buffer_, align 8
  %16 = load i32, ptr %index, align 4
  %add = add i32 %16, 1
  %idxprom11 = zext i32 %add to i64
  %arrayidx12 = getelementptr inbounds i32, ptr %15, i64 %idxprom11
  %17 = load ptr, ptr %blocks.addr, align 8
  store ptr %arrayidx12, ptr %17, align 8
  %block_array_buffer_13 = getelementptr inbounds %"class.rocksdb::BlockPrefixIndex", ptr %this1, i32 0, i32 4
  %18 = load ptr, ptr %block_array_buffer_13, align 8
  %19 = load i32, ptr %index, align 4
  %idxprom14 = zext i32 %19 to i64
  %arrayidx15 = getelementptr inbounds i32, ptr %18, i64 %idxprom14
  %20 = load i32, ptr %arrayidx15, align 4
  store i32 %20, ptr %num_blocks, align 4
  %21 = load i32, ptr %num_blocks, align 4
  store i32 %21, ptr %retval, align 4
  br label %return

return:                                           ; preds = %if.else9, %if.then5, %if.then
  %22 = load i32, ptr %retval, align 4
  ret i32 %22
}