; Function Attrs: mustprogress uwtable
define noundef i32 @_ZN7rocksdb16BlockPrefixIndex9GetBlocksERKNS_5SliceEPPj(ptr nocapture noundef nonnull readonly align 8 dereferenceable(64) %this, ptr nocapture noundef nonnull readonly align 8 dereferenceable(16) %key, ptr nocapture noundef writeonly %blocks) local_unnamed_addr #0 align 2 {
entry:
  %user_key.i = alloca %"class.rocksdb::Slice", align 8
  call void @llvm.lifetime.start.p0(i64 16, ptr nonnull %user_key.i)
  %0 = load ptr, ptr %key, align 8
  %size_.i.i.i = getelementptr inbounds i8, ptr %key, i64 8
  %1 = load i64, ptr %size_.i.i.i, align 8
  %sub.i.i = add i64 %1, -8
  store ptr %0, ptr %user_key.i, align 8
  %2 = getelementptr inbounds i8, ptr %user_key.i, i64 8
  store i64 %sub.i.i, ptr %2, align 8
  %transform_.i = getelementptr inbounds i8, ptr %this, i64 32
  %3 = load ptr, ptr %transform_.i, align 8
  %vtable.i = load ptr, ptr %3, align 8
  %vfn.i = getelementptr inbounds i8, ptr %vtable.i, i64 152
  %4 = load ptr, ptr %vfn.i, align 8
  %call2.i = call { ptr, i64 } %4(ptr noundef nonnull align 8 dereferenceable(32) %3, ptr noundef nonnull align 8 dereferenceable(16) %user_key.i)
  call void @llvm.lifetime.end.p0(i64 16, ptr nonnull %user_key.i)
  %5 = extractvalue { ptr, i64 } %call2.i, 0
  %6 = extractvalue { ptr, i64 } %call2.i, 1
  %num_buckets_ = getelementptr inbounds i8, ptr %this, i64 40
  %7 = load i32, ptr %num_buckets_, align 8
  %call2.i.i = call noundef i32 @_ZN7rocksdb4HashEPKcmj(ptr noundef %5, i64 noundef %6, i32 noundef 0)
  %rem.i = urem i32 %call2.i.i, %7
  %buckets_ = getelementptr inbounds i8, ptr %this, i64 48
  %8 = load ptr, ptr %buckets_, align 8
  %idxprom = zext i32 %rem.i to i64
  %arrayidx = getelementptr inbounds i32, ptr %8, i64 %idxprom
  %9 = load i32, ptr %arrayidx, align 4
  %cmp.i = icmp eq i32 %9, 2147483647
  br i1 %cmp.i, label %return, label %if.else

if.else:                                          ; preds = %entry
  %cmp.i7 = icmp sgt i32 %9, -1
  br i1 %cmp.i7, label %if.then5, label %if.else9

if.then5:                                         ; preds = %if.else
  store ptr %arrayidx, ptr %blocks, align 8
  br label %return

if.else9:                                         ; preds = %if.else
  %xor.i = and i32 %9, 2147483647
  %block_array_buffer_ = getelementptr inbounds i8, ptr %this, i64 56
  %10 = load ptr, ptr %block_array_buffer_, align 8
  %add = add nuw i32 %xor.i, 1
  %idxprom11 = zext i32 %add to i64
  %arrayidx12 = getelementptr inbounds i32, ptr %10, i64 %idxprom11
  store ptr %arrayidx12, ptr %blocks, align 8
  %11 = load ptr, ptr %block_array_buffer_, align 8
  %idxprom14 = zext nneg i32 %xor.i to i64
  %arrayidx15 = getelementptr inbounds i32, ptr %11, i64 %idxprom14
  %12 = load i32, ptr %arrayidx15, align 4
  br label %return

return:                                           ; preds = %entry, %if.else9, %if.then5
  %retval.0 = phi i32 [ 1, %if.then5 ], [ %12, %if.else9 ], [ 0, %entry ]
  ret i32 %retval.0
}